target datalayout = "e-m:e-p270:32:32-p271:32:32-p272:64:64-i64:64-i128:128-f80:128-n8:16:32:64-S128"
target triple = "x86_64-pc-linux-gnu"

; Function Attrs: null_pointer_is_valid sspstrong uwtable
define internal i32 @dissect_syslog_tcp(ptr noundef %0, ptr noundef %1, ptr noundef %2, ptr noundef %3) #0 {
  %5 = alloca i32, align 4
  %6 = alloca ptr, align 8
  %7 = alloca ptr, align 8
  %8 = alloca ptr, align 8
  %9 = alloca ptr, align 8
  store ptr %0, ptr %6, align 8
  store ptr %1, ptr %7, align 8
  store ptr %2, ptr %8, align 8
  store ptr %3, ptr %9, align 8
  %10 = load ptr, ptr %7, align 8
  %11 = load ptr, ptr %6, align 8
  %12 = load ptr, ptr %9, align 8
  %13 = call i32 @get_framed_syslog_pdu_len(ptr noundef %10, ptr noundef %11, i32 noundef 0, ptr noundef %12)
  %14 = icmp ugt i32 %13, 0
  br i1 %14, label %15, label %22

15:                                               ; preds = %4
  %16 = load ptr, ptr %6, align 8
  %17 = load ptr, ptr %7, align 8
  %18 = load ptr, ptr %8, align 8
  %19 = load ptr, ptr %9, align 8
  call void @tcp_dissect_pdus(ptr noundef %16, ptr noundef %17, ptr noundef %18, i1 noundef zeroext true, i32 noundef 6, ptr noundef @get_framed_syslog_pdu_len, ptr noundef @dissect_syslog, ptr noundef %19)
  %20 = load ptr, ptr %6, align 8
  %21 = call i32 @tvb_reported_length(ptr noundef %20)
  store i32 %21, ptr %5, align 4
  br label %28

22:                                               ; preds = %4
  %23 = load ptr, ptr %6, align 8
  %24 = load ptr, ptr %7, align 8
  %25 = load ptr, ptr %8, align 8
  %26 = load ptr, ptr %9, align 8
  %27 = call i32 @dissect_syslog(ptr noundef %23, ptr noundef %24, ptr noundef %25, ptr noundef %26)
  store i32 %27, ptr %5, align 4
  br label %28

28:                                               ; preds = %22, %15
  %29 = load i32, ptr %5, align 4
  ret i32 %29
}