; Function Attrs: null_pointer_is_valid sspstrong uwtable
define internal i32 @dissect_syslog_tcp(ptr noundef %0, ptr noundef %1, ptr noundef %2, ptr noundef %3) #0 {
  %5 = tail call i32 @get_framed_syslog_pdu_len(ptr noundef %1, ptr noundef %0, i32 noundef 0, ptr poison)
  %.not = icmp eq i32 %5, 0
  br i1 %.not, label %8, label %6

6:                                                ; preds = %4
  tail call void @tcp_dissect_pdus(ptr noundef %0, ptr noundef %1, ptr noundef %2, i1 noundef zeroext true, i32 noundef 6, ptr noundef nonnull @get_framed_syslog_pdu_len, ptr noundef nonnull @dissect_syslog, ptr noundef %3)
  %7 = tail call i32 @tvb_reported_length(ptr noundef %0)
  br label %10

8:                                                ; preds = %4
  %9 = tail call i32 @dissect_syslog(ptr noundef %0, ptr noundef %1, ptr noundef %2, ptr noundef %3)
  br label %10

10:                                               ; preds = %8, %6
  %.0 = phi i32 [ %7, %6 ], [ %9, %8 ]
  ret i32 %.0
}